; Function Attrs: uwtable
define noundef double @_ZThn24_NK8QuantLib15LinearTsrPricer13meanReversionEv(ptr noundef %this) unnamed_addr #14 align 2 {
entry:
  %meanReversion_.i = getelementptr inbounds i8, ptr %this, i64 24
  %call.i = tail call noundef nonnull align 8 dereferenceable(16) ptr @_ZNK8QuantLib6HandleINS_5QuoteEEptEv(ptr noundef nonnull align 8 dereferenceable(16) %meanReversion_.i)
  %0 = load ptr, ptr %call.i, align 8, !tbaa !87
  %cmp.not.i.i = icmp eq ptr %0, null
  br i1 %cmp.not.i.i, label %cond.false.i.i, label %_ZNK8QuantLib15LinearTsrPricer13meanReversionEv.exit, !prof !58

cond.false.i.i:                                   ; preds = %entry
  tail call void @_ZN5boost16assertion_failedEPKcS1_S1_l(ptr noundef nonnull @.str.15, ptr noundef nonnull @__PRETTY_FUNCTION__._ZNK5boost10shared_ptrIN8QuantLib5QuoteEEptEv, ptr noundef nonnull @.str.16, i64 noundef 784)
  %.pre.i.i = load ptr, ptr %call.i, align 8, !tbaa !87
  br label %_ZNK8QuantLib15LinearTsrPricer13meanReversionEv.exit

_ZNK8QuantLib15LinearTsrPricer13meanReversionEv.exit: ; preds = %entry, %cond.false.i.i
  %1 = phi ptr [ %0, %entry ], [ %.pre.i.i, %cond.false.i.i ]
  %vtable.i = load ptr, ptr %1, align 8, !tbaa !35
  %vfn.i = getelementptr inbounds i8, ptr %vtable.i, i64 16
  %2 = load ptr, ptr %vfn.i, align 8
  %call3.i = tail call noundef double %2(ptr noundef nonnull align 8 dereferenceable(8) %1)
  ret double %call3.i
}